target datalayout = "e-m:e-p270:32:32-p271:32:32-p272:64:64-i64:64-i128:128-f80:128-n8:16:32:64-S128"
target triple = "x86_64-pc-linux-gnu"

%struct.JPGContext = type { %struct.BlockDSPContext, %struct.IDCTDSPContext, [64 x i8], [2 x %struct.VLC], [2 x %struct.VLC], [3 x i32], [12 x i8], [6 x [64 x i16]], ptr, [8 x i8] }
%struct.BlockDSPContext = type { ptr, ptr, [2 x ptr] }
%struct.IDCTDSPContext = type { ptr, ptr, ptr, ptr, ptr, ptr, [64 x i8], i32, i32 }
%struct.VLC = type { i32, ptr, i32, i32 }

@ff_mjpeg_bits_dc_luminance = external hidden constant [0 x i8], align 1
@ff_mjpeg_val_dc = external hidden constant [0 x i8], align 1
@ff_mjpeg_bits_dc_chrominance = external hidden constant [0 x i8], align 1
@ff_mjpeg_bits_ac_luminance = external hidden constant [0 x i8], align 1
@ff_mjpeg_val_ac_luminance = external hidden constant [0 x i8], align 1
@ff_mjpeg_bits_ac_chrominance = external hidden constant [0 x i8], align 1
@ff_mjpeg_val_ac_chrominance = external hidden constant [0 x i8], align 1
@ff_zigzag_direct = external constant [64 x i8], align 16

; Function Attrs: cold nounwind optsize uwtable
define internal i32 @jpg_init(ptr noundef %0, ptr noundef %1) #0 {
  %3 = alloca i32, align 4
  %4 = alloca ptr, align 8
  %5 = alloca ptr, align 8
  %6 = alloca i32, align 4
  %7 = alloca i32, align 4
  store ptr %0, ptr %4, align 8, !tbaa !4
  store ptr %1, ptr %5, align 8, !tbaa !84
  call void @llvm.lifetime.start.p0(i64 4, ptr %6) #12
  %8 = load ptr, ptr %5, align 8, !tbaa !84
  %9 = getelementptr inbounds nuw %struct.JPGContext, ptr %8, i32 0, i32 3
  %10 = getelementptr inbounds [2 x %struct.VLC], ptr %9, i64 0, i64 0
  %11 = load ptr, ptr %4, align 8, !tbaa !4
  %12 = call i32 @ff_mjpeg_build_vlc(ptr noundef %10, ptr noundef @ff_mjpeg_bits_dc_luminance, ptr noundef @ff_mjpeg_val_dc, i32 noundef 0, ptr noundef %11)
  store i32 %12, ptr %6, align 4, !tbaa !31
  %13 = load i32, ptr %6, align 4, !tbaa !31
  %14 = icmp ne i32 %13, 0
  br i1 %14, label %15, label %17

15:                                               ; preds = %2
  %16 = load i32, ptr %6, align 4, !tbaa !31
  store i32 %16, ptr %3, align 4
  store i32 1, ptr %7, align 4
  br label %60

17:                                               ; preds = %2
  %18 = load ptr, ptr %5, align 8, !tbaa !84
  %19 = getelementptr inbounds nuw %struct.JPGContext, ptr %18, i32 0, i32 3
  %20 = getelementptr inbounds [2 x %struct.VLC], ptr %19, i64 0, i64 1
  %21 = load ptr, ptr %4, align 8, !tbaa !4
  %22 = call i32 @ff_mjpeg_build_vlc(ptr noundef %20, ptr noundef @ff_mjpeg_bits_dc_chrominance, ptr noundef @ff_mjpeg_val_dc, i32 noundef 0, ptr noundef %21)
  store i32 %22, ptr %6, align 4, !tbaa !31
  %23 = load i32, ptr %6, align 4, !tbaa !31
  %24 = icmp ne i32 %23, 0
  br i1 %24, label %25, label %27

25:                                               ; preds = %17
  %26 = load i32, ptr %6, align 4, !tbaa !31
  store i32 %26, ptr %3, align 4
  store i32 1, ptr %7, align 4
  br label %60

27:                                               ; preds = %17
  %28 = load ptr, ptr %5, align 8, !tbaa !84
  %29 = getelementptr inbounds nuw %struct.JPGContext, ptr %28, i32 0, i32 4
  %30 = getelementptr inbounds [2 x %struct.VLC], ptr %29, i64 0, i64 0
  %31 = load ptr, ptr %4, align 8, !tbaa !4
  %32 = call i32 @ff_mjpeg_build_vlc(ptr noundef %30, ptr noundef @ff_mjpeg_bits_ac_luminance, ptr noundef @ff_mjpeg_val_ac_luminance, i32 noundef 1, ptr noundef %31)
  store i32 %32, ptr %6, align 4, !tbaa !31
  %33 = load i32, ptr %6, align 4, !tbaa !31
  %34 = icmp ne i32 %33, 0
  br i1 %34, label %35, label %37

35:                                               ; preds = %27
  %36 = load i32, ptr %6, align 4, !tbaa !31
  store i32 %36, ptr %3, align 4
  store i32 1, ptr %7, align 4
  br label %60

37:                                               ; preds = %27
  %38 = load ptr, ptr %5, align 8, !tbaa !84
  %39 = getelementptr inbounds nuw %struct.JPGContext, ptr %38, i32 0, i32 4
  %40 = getelementptr inbounds [2 x %struct.VLC], ptr %39, i64 0, i64 1
  %41 = load ptr, ptr %4, align 8, !tbaa !4
  %42 = call i32 @ff_mjpeg_build_vlc(ptr noundef %40, ptr noundef @ff_mjpeg_bits_ac_chrominance, ptr noundef @ff_mjpeg_val_ac_chrominance, i32 noundef 1, ptr noundef %41)
  store i32 %42, ptr %6, align 4, !tbaa !31
  %43 = load i32, ptr %6, align 4, !tbaa !31
  %44 = icmp ne i32 %43, 0
  br i1 %44, label %45, label %47

45:                                               ; preds = %37
  %46 = load i32, ptr %6, align 4, !tbaa !31
  store i32 %46, ptr %3, align 4
  store i32 1, ptr %7, align 4
  br label %60

47:                                               ; preds = %37
  %48 = load ptr, ptr %5, align 8, !tbaa !84
  %49 = getelementptr inbounds nuw %struct.JPGContext, ptr %48, i32 0, i32 0
  call void @ff_blockdsp_init(ptr noundef %49)
  %50 = load ptr, ptr %5, align 8, !tbaa !84
  %51 = getelementptr inbounds nuw %struct.JPGContext, ptr %50, i32 0, i32 1
  %52 = load ptr, ptr %4, align 8, !tbaa !4
  call void @ff_idctdsp_init(ptr noundef %51, ptr noundef %52)
  %53 = load ptr, ptr %5, align 8, !tbaa !84
  %54 = getelementptr inbounds nuw %struct.JPGContext, ptr %53, i32 0, i32 2
  %55 = getelementptr inbounds [64 x i8], ptr %54, i64 0, i64 0
  %56 = load ptr, ptr %5, align 8, !tbaa !84
  %57 = getelementptr inbounds nuw %struct.JPGContext, ptr %56, i32 0, i32 1
  %58 = getelementptr inbounds nuw %struct.IDCTDSPContext, ptr %57, i32 0, i32 6
  %59 = getelementptr inbounds [64 x i8], ptr %58, i64 0, i64 0
  call void @ff_permute_scantable(ptr noundef %55, ptr noundef @ff_zigzag_direct, ptr noundef %59)
  store i32 0, ptr %3, align 4
  store i32 1, ptr %7, align 4
  br label %60

60:                                               ; preds = %47, %45, %35, %25, %15
  call void @llvm.lifetime.end.p0(i64 4, ptr %6) #12
  %61 = load i32, ptr %3, align 4
  ret i32 %61
}