; Function Attrs: cold nounwind optsize uwtable
define internal fastcc i32 @jpg_init(ptr noundef %0, ptr noundef %1) unnamed_addr #0 {
  %3 = getelementptr inbounds nuw i8, ptr %1, i64 216
  %4 = tail call i32 @ff_mjpeg_build_vlc(ptr noundef nonnull %3, ptr noundef nonnull @ff_mjpeg_bits_dc_luminance, ptr noundef nonnull @ff_mjpeg_val_dc, i32 noundef 0, ptr noundef %0) #12
  %.not = icmp eq i32 %4, 0
  br i1 %.not, label %5, label %18

5:                                                ; preds = %2
  %6 = getelementptr inbounds nuw i8, ptr %1, i64 240
  %7 = tail call i32 @ff_mjpeg_build_vlc(ptr noundef nonnull %6, ptr noundef nonnull @ff_mjpeg_bits_dc_chrominance, ptr noundef nonnull @ff_mjpeg_val_dc, i32 noundef 0, ptr noundef %0) #12
  %.not25 = icmp eq i32 %7, 0
  br i1 %.not25, label %8, label %18

8:                                                ; preds = %5
  %9 = getelementptr inbounds nuw i8, ptr %1, i64 264
  %10 = tail call i32 @ff_mjpeg_build_vlc(ptr noundef nonnull %9, ptr noundef nonnull @ff_mjpeg_bits_ac_luminance, ptr noundef nonnull @ff_mjpeg_val_ac_luminance, i32 noundef 1, ptr noundef %0) #12
  %.not26 = icmp eq i32 %10, 0
  br i1 %.not26, label %11, label %18

11:                                               ; preds = %8
  %12 = getelementptr inbounds nuw i8, ptr %1, i64 288
  %13 = tail call i32 @ff_mjpeg_build_vlc(ptr noundef nonnull %12, ptr noundef nonnull @ff_mjpeg_bits_ac_chrominance, ptr noundef nonnull @ff_mjpeg_val_ac_chrominance, i32 noundef 1, ptr noundef %0) #12
  %.not27 = icmp eq i32 %13, 0
  br i1 %.not27, label %14, label %18

14:                                               ; preds = %11
  tail call void @ff_blockdsp_init(ptr noundef nonnull %1) #12
  %15 = getelementptr inbounds nuw i8, ptr %1, i64 32
  tail call void @ff_idctdsp_init(ptr noundef nonnull %15, ptr noundef %0) #12
  %16 = getelementptr inbounds nuw i8, ptr %1, i64 152
  %17 = getelementptr inbounds nuw i8, ptr %1, i64 80
  tail call void @ff_permute_scantable(ptr noundef nonnull %16, ptr noundef nonnull @ff_zigzag_direct, ptr noundef nonnull %17) #12
  br label %18

18:                                               ; preds = %11, %8, %5, %2, %14
  %.0 = phi i32 [ 0, %14 ], [ %4, %2 ], [ %7, %5 ], [ %10, %8 ], [ %13, %11 ]
  ret i32 %.0
}